target datalayout = "e-m:e-p270:32:32-p271:32:32-p272:64:64-i64:64-i128:128-f80:128-n8:16:32:64-S128"
target triple = "x86_64-pc-linux-gnu"

%"class.llvm::SmallVectorBase" = type { ptr, i32, i32 }
%"class.llvm::MemoryDependenceResults" = type { %"class.llvm::DenseMap", %"class.llvm::DenseMap.0", %"class.llvm::DenseMap.3", %"class.llvm::DenseMap.6", %"class.llvm::DenseMap.9", %"class.llvm::DenseMap.12", %"class.llvm::DenseMap.15", %"class.llvm::DenseMap.15", ptr, ptr, ptr, ptr, %"class.llvm::PredIteratorCache", %"class.llvm::EarliestEscapeInfo", i32, [4 x i8], %"class.llvm::DenseMap.38" }
%"class.llvm::DenseMap" = type <{ ptr, i32, i32, i32, [4 x i8] }>
%"class.llvm::DenseMap.0" = type <{ ptr, i32, i32, i32, [4 x i8] }>
%"class.llvm::DenseMap.3" = type <{ ptr, i32, i32, i32, [4 x i8] }>
%"class.llvm::DenseMap.6" = type <{ ptr, i32, i32, i32, [4 x i8] }>
%"class.llvm::DenseMap.9" = type <{ ptr, i32, i32, i32, [4 x i8] }>
%"class.llvm::DenseMap.12" = type <{ ptr, i32, i32, i32, [4 x i8] }>
%"class.llvm::DenseMap.15" = type <{ ptr, i32, i32, i32, [4 x i8] }>
%"class.llvm::PredIteratorCache" = type { %"class.llvm::DenseMap.18", %"class.llvm::BumpPtrAllocatorImpl" }
%"class.llvm::DenseMap.18" = type <{ ptr, i32, i32, i32, [4 x i8] }>
%"class.llvm::BumpPtrAllocatorImpl" = type { ptr, ptr, %"class.llvm::SmallVector.22", %"class.llvm::SmallVector.27", i64, i64 }
%"class.llvm::SmallVector.22" = type { %"class.llvm::SmallVectorImpl.23", %"struct.llvm::SmallVectorStorage.26" }
%"class.llvm::SmallVectorImpl.23" = type { %"class.llvm::SmallVectorTemplateBase.24" }
%"class.llvm::SmallVectorTemplateBase.24" = type { %"class.llvm::SmallVectorTemplateCommon.25" }
%"class.llvm::SmallVectorTemplateCommon.25" = type { %"class.llvm::SmallVectorBase" }
%"struct.llvm::SmallVectorStorage.26" = type { [32 x i8] }
%"class.llvm::SmallVector.27" = type { %"class.llvm::SmallVectorImpl.28" }
%"class.llvm::SmallVectorImpl.28" = type { %"class.llvm::SmallVectorTemplateBase.29" }
%"class.llvm::SmallVectorTemplateBase.29" = type { %"class.llvm::SmallVectorTemplateCommon.30" }
%"class.llvm::SmallVectorTemplateCommon.30" = type { %"class.llvm::SmallVectorBase" }
%"class.llvm::EarliestEscapeInfo" = type { %"struct.llvm::CaptureInfo", ptr, ptr, %"class.llvm::DenseMap.32", %"class.llvm::DenseMap.35" }
%"struct.llvm::CaptureInfo" = type { ptr }
%"class.llvm::DenseMap.32" = type <{ ptr, i32, i32, i32, [4 x i8] }>
%"class.llvm::DenseMap.35" = type <{ ptr, i32, i32, i32, [4 x i8] }>
%"class.llvm::DenseMap.38" = type <{ ptr, i32, i32, i32, [4 x i8] }>
%"class.llvm::ArrayRef" = type { ptr, i64 }
%"struct.std::pair.338" = type { ptr, %"class.llvm::ArrayRef" }
%"struct.llvm::detail::DenseMapPair.337" = type { %"struct.std::pair.338" }

; Function Attrs: mustprogress nounwind uwtable
define linkonce_odr hidden void @_ZN4llvm8DenseMapIPNS_10BasicBlockENS_8ArrayRefIS2_EENS_12DenseMapInfoIS2_vEENS_6detail12DenseMapPairIS2_S4_EEE16setNumTombstonesEj(ptr noundef nonnull align 8 dereferenceable(20) %0, i32 noundef %1) #1 comdat align 2 {
  %3 = alloca ptr, align 8
  %4 = alloca i32, align 4
  store ptr %0, ptr %3, align 8
  store i32 %1, ptr %4, align 4
  %5 = load ptr, ptr %3, align 8
  %6 = load i32, ptr %4, align 4
  %7 = getelementptr inbounds nuw %"class.llvm::DenseMap.18", ptr %5, i32 0, i32 2
  store i32 %6, ptr %7, align 4
  ret void
}

; Function Attrs: mustprogress nounwind uwtable
define linkonce_odr hidden void @_ZN4llvm8DenseMapIPNS_10BasicBlockENS_8ArrayRefIS2_EENS_12DenseMapInfoIS2_vEENS_6detail12DenseMapPairIS2_S4_EEE13setNumEntriesEj(ptr noundef nonnull align 8 dereferenceable(20) %0, i32 noundef %1) #1 comdat align 2 {
  %3 = alloca ptr, align 8
  %4 = alloca i32, align 4
  store ptr %0, ptr %3, align 8
  store i32 %1, ptr %4, align 4
  %5 = load ptr, ptr %3, align 8
  %6 = load i32, ptr %4, align 4
  %7 = getelementptr inbounds nuw %"class.llvm::DenseMap.18", ptr %5, i32 0, i32 1
  store i32 %6, ptr %7, align 8
  ret void
}

; Function Attrs: mustprogress nounwind uwtable
define linkonce_odr hidden noundef ptr @_ZNK4llvm8DenseMapIPNS_10BasicBlockENS_8ArrayRefIS2_EENS_12DenseMapInfoIS2_vEENS_6detail12DenseMapPairIS2_S4_EEE10getBucketsEv(ptr noundef nonnull align 8 dereferenceable(20) %0) #1 comdat align 2 {
  %2 = alloca ptr, align 8
  store ptr %0, ptr %2, align 8
  %3 = load ptr, ptr %2, align 8
  %4 = getelementptr inbounds nuw %"class.llvm::DenseMap.18", ptr %3, i32 0, i32 0
  %5 = load ptr, ptr %4, align 8
  ret ptr %5
}

; Function Attrs: mustprogress nounwind uwtable
define linkonce_odr hidden noundef ptr @_ZN4llvm12DenseMapInfoIPNS_10BasicBlockEvE11getEmptyKeyEv() #1 comdat align 2 {
  %1 = alloca i64, align 8
  store i64 -1, ptr %1, align 8
  %2 = load i64, ptr %1, align 8
  %3 = shl i64 %2, 12
  store i64 %3, ptr %1, align 8
  %4 = load i64, ptr %1, align 8
  %5 = inttoptr i64 %4 to ptr
  ret ptr %5
}

; Function Attrs: mustprogress nounwind uwtable
define linkonce_odr hidden noundef i32 @_ZNK4llvm8DenseMapIPNS_10BasicBlockENS_8ArrayRefIS2_EENS_12DenseMapInfoIS2_vEENS_6detail12DenseMapPairIS2_S4_EEE13getNumBucketsEv(ptr noundef nonnull align 8 dereferenceable(20) %0) #1 comdat align 2 {
  %2 = alloca ptr, align 8
  store ptr %0, ptr %2, align 8
  %3 = load ptr, ptr %2, align 8
  %4 = getelementptr inbounds nuw %"class.llvm::DenseMap.18", ptr %3, i32 0, i32 3
  %5 = load i32, ptr %4, align 8
  ret i32 %5
}

; Function Attrs: mustprogress nounwind uwtable
define linkonce_odr hidden noundef i32 @_ZNK4llvm8DenseMapIPNS_10BasicBlockENS_8ArrayRefIS2_EENS_12DenseMapInfoIS2_vEENS_6detail12DenseMapPairIS2_S4_EEE16getNumTombstonesEv(ptr noundef nonnull align 8 dereferenceable(20) %0) #1 comdat align 2 {
  %2 = alloca ptr, align 8
  store ptr %0, ptr %2, align 8
  %3 = load ptr, ptr %2, align 8
  %4 = getelementptr inbounds nuw %"class.llvm::DenseMap.18", ptr %3, i32 0, i32 2
  %5 = load i32, ptr %4, align 4
  ret i32 %5
}

; Function Attrs: mustprogress nounwind uwtable
define linkonce_odr hidden noundef i32 @_ZNK4llvm8DenseMapIPNS_10BasicBlockENS_8ArrayRefIS2_EENS_12DenseMapInfoIS2_vEENS_6detail12DenseMapPairIS2_S4_EEE13getNumEntriesEv(ptr noundef nonnull align 8 dereferenceable(20) %0) #1 comdat align 2 {
  %2 = alloca ptr, align 8
  store ptr %0, ptr %2, align 8
  %3 = load ptr, ptr %2, align 8
  %4 = getelementptr inbounds nuw %"class.llvm::DenseMap.18", ptr %3, i32 0, i32 1
  %5 = load i32, ptr %4, align 8
  ret i32 %5
}

; Function Attrs: mustprogress nounwind uwtable
define linkonce_odr hidden void @_ZN4llvm12DenseMapBaseINS_8DenseMapIPNS_10BasicBlockENS_8ArrayRefIS3_EENS_12DenseMapInfoIS3_vEENS_6detail12DenseMapPairIS3_S5_EEEES3_S5_S7_SA_E16setNumTombstonesEj(ptr noundef nonnull align 1 dereferenceable(1) %0, i32 noundef %1) #1 comdat align 2 {
  %3 = alloca ptr, align 8
  %4 = alloca i32, align 4
  store ptr %0, ptr %3, align 8
  store i32 %1, ptr %4, align 4
  %5 = load ptr, ptr %3, align 8
  %6 = load i32, ptr %4, align 4
  call void @_ZN4llvm8DenseMapIPNS_10BasicBlockENS_8ArrayRefIS2_EENS_12DenseMapInfoIS2_vEENS_6detail12DenseMapPairIS2_S4_EEE16setNumTombstonesEj(ptr noundef nonnull align 8 dereferenceable(20) %5, i32 noundef %6)
  ret void
}

; Function Attrs: mustprogress nounwind uwtable
define linkonce_odr hidden void @_ZN4llvm12DenseMapBaseINS_8DenseMapIPNS_10BasicBlockENS_8ArrayRefIS3_EENS_12DenseMapInfoIS3_vEENS_6detail12DenseMapPairIS3_S5_EEEES3_S5_S7_SA_E13setNumEntriesEj(ptr noundef nonnull align 1 dereferenceable(1) %0, i32 noundef %1) #1 comdat align 2 {
  %3 = alloca ptr, align 8
  %4 = alloca i32, align 4
  store ptr %0, ptr %3, align 8
  store i32 %1, ptr %4, align 4
  %5 = load ptr, ptr %3, align 8
  %6 = load i32, ptr %4, align 4
  call void @_ZN4llvm8DenseMapIPNS_10BasicBlockENS_8ArrayRefIS2_EENS_12DenseMapInfoIS2_vEENS_6detail12DenseMapPairIS2_S4_EEE13setNumEntriesEj(ptr noundef nonnull align 8 dereferenceable(20) %5, i32 noundef %6)
  ret void
}

; Function Attrs: mustprogress nounwind uwtable
define linkonce_odr hidden noundef nonnull align 8 dereferenceable(8) ptr @_ZN4llvm6detail12DenseMapPairIPNS_10BasicBlockENS_8ArrayRefIS3_EEE8getFirstEv(ptr noundef nonnull align 8 dereferenceable(24) %0) #1 comdat align 2 {
  %2 = alloca ptr, align 8
  store ptr %0, ptr %2, align 8
  %3 = load ptr, ptr %2, align 8
  %4 = getelementptr inbounds nuw %"struct.std::pair.338", ptr %3, i32 0, i32 0
  ret ptr %4
}

; Function Attrs: mustprogress nounwind uwtable
define linkonce_odr hidden noundef ptr @_ZN4llvm12DenseMapBaseINS_8DenseMapIPNS_10BasicBlockENS_8ArrayRefIS3_EENS_12DenseMapInfoIS3_vEENS_6detail12DenseMapPairIS3_S5_EEEES3_S5_S7_SA_E13getBucketsEndEv(ptr noundef nonnull align 1 dereferenceable(1) %0) #1 comdat align 2 {
  %2 = alloca ptr, align 8
  store ptr %0, ptr %2, align 8
  %3 = load ptr, ptr %2, align 8
  %4 = call noundef ptr @_ZN4llvm12DenseMapBaseINS_8DenseMapIPNS_10BasicBlockENS_8ArrayRefIS3_EENS_12DenseMapInfoIS3_vEENS_6detail12DenseMapPairIS3_S5_EEEES3_S5_S7_SA_E10getBucketsEv(ptr noundef nonnull align 1 dereferenceable(1) %3)
  %5 = call noundef i32 @_ZNK4llvm12DenseMapBaseINS_8DenseMapIPNS_10BasicBlockENS_8ArrayRefIS3_EENS_12DenseMapInfoIS3_vEENS_6detail12DenseMapPairIS3_S5_EEEES3_S5_S7_SA_E13getNumBucketsEv(ptr noundef nonnull align 1 dereferenceable(1) %3)
  %6 = zext i32 %5 to i64
  %7 = getelementptr inbounds %"struct.llvm::detail::DenseMapPair.337", ptr %4, i64 %6
  ret ptr %7
}

; Function Attrs: mustprogress nounwind uwtable
define linkonce_odr hidden noundef ptr @_ZN4llvm12DenseMapBaseINS_8DenseMapIPNS_10BasicBlockENS_8ArrayRefIS3_EENS_12DenseMapInfoIS3_vEENS_6detail12DenseMapPairIS3_S5_EEEES3_S5_S7_SA_E10getBucketsEv(ptr noundef nonnull align 1 dereferenceable(1) %0) #1 comdat align 2 {
  %2 = alloca ptr, align 8
  store ptr %0, ptr %2, align 8
  %3 = load ptr, ptr %2, align 8
  %4 = call noundef ptr @_ZNK4llvm8DenseMapIPNS_10BasicBlockENS_8ArrayRefIS2_EENS_12DenseMapInfoIS2_vEENS_6detail12DenseMapPairIS2_S4_EEE10getBucketsEv(ptr noundef nonnull align 8 dereferenceable(20) %3)
  ret ptr %4
}

; Function Attrs: mustprogress nounwind uwtable
define linkonce_odr hidden noundef ptr @_ZN4llvm12DenseMapBaseINS_8DenseMapIPNS_10BasicBlockENS_8ArrayRefIS3_EENS_12DenseMapInfoIS3_vEENS_6detail12DenseMapPairIS3_S5_EEEES3_S5_S7_SA_E11getEmptyKeyEv() #1 comdat align 2 {
  %1 = call noundef ptr @_ZN4llvm12DenseMapInfoIPNS_10BasicBlockEvE11getEmptyKeyEv()
  ret ptr %1
}

; Function Attrs: mustprogress nounwind uwtable
define linkonce_odr hidden void @_ZN4llvm12DenseMapBaseINS_8DenseMapIPNS_10BasicBlockENS_8ArrayRefIS3_EENS_12DenseMapInfoIS3_vEENS_6detail12DenseMapPairIS3_S5_EEEES3_S5_S7_SA_E16shrink_and_clearEv(ptr noundef nonnull align 1 dereferenceable(1) %0) #1 comdat align 2 {
  %2 = alloca ptr, align 8
  store ptr %0, ptr %2, align 8
  %3 = load ptr, ptr %2, align 8
  call void @_ZN4llvm8DenseMapIPNS_10BasicBlockENS_8ArrayRefIS2_EENS_12DenseMapInfoIS2_vEENS_6detail12DenseMapPairIS2_S4_EEE16shrink_and_clearEv(ptr noundef nonnull align 8 dereferenceable(20) %3)
  ret void
}

; Function Attrs: mustprogress nounwind uwtable
define linkonce_odr hidden noundef i32 @_ZNK4llvm12DenseMapBaseINS_8DenseMapIPNS_10BasicBlockENS_8ArrayRefIS3_EENS_12DenseMapInfoIS3_vEENS_6detail12DenseMapPairIS3_S5_EEEES3_S5_S7_SA_E13getNumBucketsEv(ptr noundef nonnull align 1 dereferenceable(1) %0) #1 comdat align 2 {
  %2 = alloca ptr, align 8
  store ptr %0, ptr %2, align 8
  %3 = load ptr, ptr %2, align 8
  %4 = call noundef i32 @_ZNK4llvm8DenseMapIPNS_10BasicBlockENS_8ArrayRefIS2_EENS_12DenseMapInfoIS2_vEENS_6detail12DenseMapPairIS2_S4_EEE13getNumBucketsEv(ptr noundef nonnull align 8 dereferenceable(20) %3)
  ret i32 %4
}

; Function Attrs: mustprogress nounwind uwtable
define linkonce_odr hidden noundef i32 @_ZNK4llvm12DenseMapBaseINS_8DenseMapIPNS_10BasicBlockENS_8ArrayRefIS3_EENS_12DenseMapInfoIS3_vEENS_6detail12DenseMapPairIS3_S5_EEEES3_S5_S7_SA_E16getNumTombstonesEv(ptr noundef nonnull align 1 dereferenceable(1) %0) #1 comdat align 2 {
  %2 = alloca ptr, align 8
  store ptr %0, ptr %2, align 8
  %3 = load ptr, ptr %2, align 8
  %4 = call noundef i32 @_ZNK4llvm8DenseMapIPNS_10BasicBlockENS_8ArrayRefIS2_EENS_12DenseMapInfoIS2_vEENS_6detail12DenseMapPairIS2_S4_EEE16getNumTombstonesEv(ptr noundef nonnull align 8 dereferenceable(20) %3)
  ret i32 %4
}

; Function Attrs: mustprogress nounwind uwtable
define linkonce_odr hidden noundef i32 @_ZNK4llvm12DenseMapBaseINS_8DenseMapIPNS_10BasicBlockENS_8ArrayRefIS3_EENS_12DenseMapInfoIS3_vEENS_6detail12DenseMapPairIS3_S5_EEEES3_S5_S7_SA_E13getNumEntriesEv(ptr noundef nonnull align 1 dereferenceable(1) %0) #1 comdat align 2 {
  %2 = alloca ptr, align 8
  store ptr %0, ptr %2, align 8
  %3 = load ptr, ptr %2, align 8
  %4 = call noundef i32 @_ZNK4llvm8DenseMapIPNS_10BasicBlockENS_8ArrayRefIS2_EENS_12DenseMapInfoIS2_vEENS_6detail12DenseMapPairIS2_S4_EEE13getNumEntriesEv(ptr noundef nonnull align 8 dereferenceable(20) %3)
  ret i32 %4
}

; Function Attrs: mustprogress nounwind uwtable
define linkonce_odr hidden void @_ZN4llvm14DebugEpochBase14incrementEpochEv(ptr noundef nonnull align 1 dereferenceable(1) %0) #1 comdat align 2 {
  %2 = alloca ptr, align 8
  store ptr %0, ptr %2, align 8
  ret void
}

; Function Attrs: mustprogress nounwind uwtable
define linkonce_odr hidden void @_ZN4llvm12DenseMapBaseINS_8DenseMapIPNS_10BasicBlockENS_8ArrayRefIS3_EENS_12DenseMapInfoIS3_vEENS_6detail12DenseMapPairIS3_S5_EEEES3_S5_S7_SA_E5clearEv(ptr noundef nonnull align 1 dereferenceable(1) %0) #1 comdat align 2 {
  %2 = alloca ptr, align 8
  %3 = alloca ptr, align 8
  %4 = alloca ptr, align 8
  %5 = alloca ptr, align 8
  store ptr %0, ptr %2, align 8
  %6 = load ptr, ptr %2, align 8
  call void @_ZN4llvm14DebugEpochBase14incrementEpochEv(ptr noundef nonnull align 1 dereferenceable(1) %6)
  %7 = call noundef i32 @_ZNK4llvm12DenseMapBaseINS_8DenseMapIPNS_10BasicBlockENS_8ArrayRefIS3_EENS_12DenseMapInfoIS3_vEENS_6detail12DenseMapPairIS3_S5_EEEES3_S5_S7_SA_E13getNumEntriesEv(ptr noundef nonnull align 1 dereferenceable(1) %6)
  %8 = icmp eq i32 %7, 0
  br i1 %8, label %9, label %13

9:                                                ; preds = %1
  %10 = call noundef i32 @_ZNK4llvm12DenseMapBaseINS_8DenseMapIPNS_10BasicBlockENS_8ArrayRefIS3_EENS_12DenseMapInfoIS3_vEENS_6detail12DenseMapPairIS3_S5_EEEES3_S5_S7_SA_E16getNumTombstonesEv(ptr noundef nonnull align 1 dereferenceable(1) %6)
  %11 = icmp eq i32 %10, 0
  br i1 %11, label %12, label %13

12:                                               ; preds = %9
  br label %38

13:                                               ; preds = %9, %1
  %14 = call noundef i32 @_ZNK4llvm12DenseMapBaseINS_8DenseMapIPNS_10BasicBlockENS_8ArrayRefIS3_EENS_12DenseMapInfoIS3_vEENS_6detail12DenseMapPairIS3_S5_EEEES3_S5_S7_SA_E13getNumEntriesEv(ptr noundef nonnull align 1 dereferenceable(1) %6)
  %15 = mul i32 %14, 4
  %16 = call noundef i32 @_ZNK4llvm12DenseMapBaseINS_8DenseMapIPNS_10BasicBlockENS_8ArrayRefIS3_EENS_12DenseMapInfoIS3_vEENS_6detail12DenseMapPairIS3_S5_EEEES3_S5_S7_SA_E13getNumBucketsEv(ptr noundef nonnull align 1 dereferenceable(1) %6)
  %17 = icmp ult i32 %15, %16
  br i1 %17, label %18, label %22

18:                                               ; preds = %13
  %19 = call noundef i32 @_ZNK4llvm12DenseMapBaseINS_8DenseMapIPNS_10BasicBlockENS_8ArrayRefIS3_EENS_12DenseMapInfoIS3_vEENS_6detail12DenseMapPairIS3_S5_EEEES3_S5_S7_SA_E13getNumBucketsEv(ptr noundef nonnull align 1 dereferenceable(1) %6)
  %20 = icmp ugt i32 %19, 64
  br i1 %20, label %21, label %22

21:                                               ; preds = %18
  call void @_ZN4llvm12DenseMapBaseINS_8DenseMapIPNS_10BasicBlockENS_8ArrayRefIS3_EENS_12DenseMapInfoIS3_vEENS_6detail12DenseMapPairIS3_S5_EEEES3_S5_S7_SA_E16shrink_and_clearEv(ptr noundef nonnull align 1 dereferenceable(1) %6)
  br label %38

22:                                               ; preds = %18, %13
  %23 = call noundef ptr @_ZN4llvm12DenseMapBaseINS_8DenseMapIPNS_10BasicBlockENS_8ArrayRefIS3_EENS_12DenseMapInfoIS3_vEENS_6detail12DenseMapPairIS3_S5_EEEES3_S5_S7_SA_E11getEmptyKeyEv()
  store ptr %23, ptr %3, align 8
  %24 = call noundef ptr @_ZN4llvm12DenseMapBaseINS_8DenseMapIPNS_10BasicBlockENS_8ArrayRefIS3_EENS_12DenseMapInfoIS3_vEENS_6detail12DenseMapPairIS3_S5_EEEES3_S5_S7_SA_E10getBucketsEv(ptr noundef nonnull align 1 dereferenceable(1) %6)
  store ptr %24, ptr %4, align 8
  %25 = call noundef ptr @_ZN4llvm12DenseMapBaseINS_8DenseMapIPNS_10BasicBlockENS_8ArrayRefIS3_EENS_12DenseMapInfoIS3_vEENS_6detail12DenseMapPairIS3_S5_EEEES3_S5_S7_SA_E13getBucketsEndEv(ptr noundef nonnull align 1 dereferenceable(1) %6)
  store ptr %25, ptr %5, align 8
  br label %26

26:                                               ; preds = %34, %22
  %27 = load ptr, ptr %4, align 8
  %28 = load ptr, ptr %5, align 8
  %29 = icmp ne ptr %27, %28
  br i1 %29, label %30, label %37

30:                                               ; preds = %26
  %31 = load ptr, ptr %3, align 8
  %32 = load ptr, ptr %4, align 8
  %33 = call noundef nonnull align 8 dereferenceable(8) ptr @_ZN4llvm6detail12DenseMapPairIPNS_10BasicBlockENS_8ArrayRefIS3_EEE8getFirstEv(ptr noundef nonnull align 8 dereferenceable(24) %32)
  store ptr %31, ptr %33, align 8
  br label %34

34:                                               ; preds = %30
  %35 = load ptr, ptr %4, align 8
  %36 = getelementptr inbounds %"struct.llvm::detail::DenseMapPair.337", ptr %35, i32 1
  store ptr %36, ptr %4, align 8
  br label %26, !llvm.loop !27

37:                                               ; preds = %26
  call void @_ZN4llvm12DenseMapBaseINS_8DenseMapIPNS_10BasicBlockENS_8ArrayRefIS3_EENS_12DenseMapInfoIS3_vEENS_6detail12DenseMapPairIS3_S5_EEEES3_S5_S7_SA_E13setNumEntriesEj(ptr noundef nonnull align 1 dereferenceable(1) %6, i32 noundef 0)
  call void @_ZN4llvm12DenseMapBaseINS_8DenseMapIPNS_10BasicBlockENS_8ArrayRefIS3_EENS_12DenseMapInfoIS3_vEENS_6detail12DenseMapPairIS3_S5_EEEES3_S5_S7_SA_E16setNumTombstonesEj(ptr noundef nonnull align 1 dereferenceable(1) %6, i32 noundef 0)
  br label %38

38:                                               ; preds = %37, %21, %12
  ret void
}

; Function Attrs: mustprogress nounwind uwtable
define linkonce_odr hidden void @_ZN4llvm17PredIteratorCache5clearEv(ptr noundef nonnull align 8 dereferenceable(120) %0) #1 comdat align 2 {
  %2 = alloca ptr, align 8
  store ptr %0, ptr %2, align 8
  %3 = load ptr, ptr %2, align 8
  %4 = getelementptr inbounds nuw %"class.llvm::PredIteratorCache", ptr %3, i32 0, i32 0
  call void @_ZN4llvm12DenseMapBaseINS_8DenseMapIPNS_10BasicBlockENS_8ArrayRefIS3_EENS_12DenseMapInfoIS3_vEENS_6detail12DenseMapPairIS3_S5_EEEES3_S5_S7_SA_E5clearEv(ptr noundef nonnull align 1 dereferenceable(1) %4)
  %5 = getelementptr inbounds nuw %"class.llvm::PredIteratorCache", ptr %3, i32 0, i32 1
  call void @_ZN4llvm20BumpPtrAllocatorImplINS_15MallocAllocatorELm4096ELm4096ELm128EE5ResetEv(ptr noundef nonnull align 8 dereferenceable(96) %5)
  ret void
}

; Function Attrs: mustprogress nounwind uwtable
define dso_local void @_ZN4llvm23MemoryDependenceResults28invalidateCachedPredecessorsEv(ptr noundef nonnull align 8 dereferenceable(448) %0) #1 align 2 {
  %2 = alloca ptr, align 8
  store ptr %0, ptr %2, align 8
  %3 = load ptr, ptr %2, align 8
  %4 = getelementptr inbounds nuw %"class.llvm::MemoryDependenceResults", ptr %3, i32 0, i32 12
  call void @_ZN4llvm17PredIteratorCache5clearEv(ptr noundef nonnull align 8 dereferenceable(120) %4)
  ret void
}