; Function Attrs: mustprogress nounwind uwtable
define dso_local void @_ZN4llvm23MemoryDependenceResults28invalidateCachedPredecessorsEv(ptr noundef nonnull align 8 dereferenceable(448) %0) local_unnamed_addr #0 align 2 {
  %2 = getelementptr inbounds nuw i8, ptr %0, i64 224
  %3 = getelementptr inbounds i8, ptr %0, i64 232
  %4 = load i32, ptr %3, align 8
  %5 = icmp eq i32 %4, 0
  %6 = getelementptr inbounds i8, ptr %0, i64 236
  %7 = load i32, ptr %6, align 4
  %8 = icmp eq i32 %7, 0
  %or.cond.i = select i1 %5, i1 %8, i1 false
  br i1 %or.cond.i, label %_ZN4llvm17PredIteratorCache5clearEv.exit, label %9

9:                                                ; preds = %1
  %10 = shl i32 %4, 2
  %11 = getelementptr inbounds i8, ptr %0, i64 240
  %12 = load i32, ptr %11, align 8
  %13 = icmp ult i32 %10, %12
  %14 = icmp ugt i32 %12, 64
  %or.cond.i.i = and i1 %13, %14
  br i1 %or.cond.i.i, label %15, label %16

15:                                               ; preds = %9
  tail call void @_ZN4llvm8DenseMapIPNS_10BasicBlockENS_8ArrayRefIS2_EENS_12DenseMapInfoIS2_vEENS_6detail12DenseMapPairIS2_S4_EEE16shrink_and_clearEv(ptr noundef nonnull align 8 dereferenceable(20) %2)
  br label %_ZN4llvm17PredIteratorCache5clearEv.exit

16:                                               ; preds = %9
  %17 = load ptr, ptr %2, align 8
  %18 = zext i32 %12 to i64
  %19 = getelementptr inbounds %"struct.llvm::detail::DenseMapPair.337", ptr %17, i64 %18
  %.not6.i.i = icmp eq i32 %12, 0
  br i1 %.not6.i.i, label %._crit_edge.i.i, label %.lr.ph.i.i

.lr.ph.i.i:                                       ; preds = %16, %.lr.ph.i.i
  %.07.i.i = phi ptr [ %20, %.lr.ph.i.i ], [ %17, %16 ]
  store ptr inttoptr (i64 -4096 to ptr), ptr %.07.i.i, align 8
  %20 = getelementptr inbounds i8, ptr %.07.i.i, i64 24
  %.not.i.i = icmp eq ptr %20, %19
  br i1 %.not.i.i, label %._crit_edge.i.i, label %.lr.ph.i.i, !llvm.loop !128

._crit_edge.i.i:                                  ; preds = %.lr.ph.i.i, %16
  store i32 0, ptr %3, align 8
  store i32 0, ptr %6, align 4
  br label %_ZN4llvm17PredIteratorCache5clearEv.exit

_ZN4llvm17PredIteratorCache5clearEv.exit:         ; preds = %1, %15, %._crit_edge.i.i
  %21 = getelementptr inbounds i8, ptr %0, i64 248
  tail call void @_ZN4llvm20BumpPtrAllocatorImplINS_15MallocAllocatorELm4096ELm4096ELm128EE5ResetEv(ptr noundef nonnull align 8 dereferenceable(96) %21)
  ret void
}